target datalayout = "e-m:e-p270:32:32-p271:32:32-p272:64:64-i64:64-i128:128-f80:128-n8:16:32:64-S128"
target triple = "x86_64-pc-linux-gnu"

%struct._object = type { %union.anon, ptr }
%union.anon = type { i64 }
%struct.anon = type { i32, i32 }
%struct.PyMethodDef = type { ptr, ptr, i32, ptr }

@PyExc_ValueError = external global ptr, align 8
@.str.35 = private unnamed_addr constant [54 x i8] c"module functions cannot set METH_CLASS or METH_STATIC\00", align 1

; Function Attrs: alwaysinline nounwind uwtable
define internal i32 @_Py_IsImmortal(ptr noundef %0) #4 {
  %2 = alloca ptr, align 8
  store ptr %0, ptr %2, align 8, !tbaa !4
  %3 = load ptr, ptr %2, align 8, !tbaa !4
  %4 = getelementptr inbounds nuw %struct._object, ptr %3, i32 0, i32 0
  %5 = getelementptr inbounds nuw %struct.anon, ptr %4, i32 0, i32 0
  %6 = load i32, ptr %5, align 8, !tbaa !26
  %7 = icmp slt i32 %6, 0
  %8 = zext i1 %7 to i32
  ret i32 %8
}

; Function Attrs: alwaysinline nounwind uwtable
define internal void @Py_DECREF(ptr noundef %0) #4 {
  %2 = alloca ptr, align 8
  store ptr %0, ptr %2, align 8, !tbaa !4
  %3 = load ptr, ptr %2, align 8, !tbaa !4
  %4 = call i32 @_Py_IsImmortal(ptr noundef %3)
  %5 = icmp ne i32 %4, 0
  br i1 %5, label %6, label %7

6:                                                ; preds = %1
  br label %16

7:                                                ; preds = %1
  %8 = load ptr, ptr %2, align 8, !tbaa !4
  %9 = getelementptr inbounds nuw %struct._object, ptr %8, i32 0, i32 0
  %10 = getelementptr inbounds nuw %struct.anon, ptr %9, i32 0, i32 0
  %11 = load i32, ptr %10, align 8, !tbaa !26
  %12 = add i32 %11, -1
  store i32 %12, ptr %10, align 8, !tbaa !26
  %13 = icmp eq i32 %12, 0
  br i1 %13, label %14, label %16

14:                                               ; preds = %7
  %15 = load ptr, ptr %2, align 8, !tbaa !4
  call void @_Py_Dealloc(ptr noundef %15)
  br label %16

16:                                               ; preds = %6, %14, %7
  ret void
}

; Function Attrs: nounwind uwtable
define internal i32 @_add_methods_to_object(ptr noundef %0, ptr noundef %1, ptr noundef %2) #0 {
  %4 = alloca i32, align 4
  %5 = alloca ptr, align 8
  %6 = alloca ptr, align 8
  %7 = alloca ptr, align 8
  %8 = alloca ptr, align 8
  %9 = alloca ptr, align 8
  %10 = alloca i32, align 4
  store ptr %0, ptr %5, align 8, !tbaa !4
  store ptr %1, ptr %6, align 8, !tbaa !4
  store ptr %2, ptr %7, align 8, !tbaa !51
  call void @llvm.lifetime.start.p0(i64 8, ptr %8) #9
  call void @llvm.lifetime.start.p0(i64 8, ptr %9) #9
  %11 = load ptr, ptr %7, align 8, !tbaa !51
  store ptr %11, ptr %9, align 8, !tbaa !51
  br label %12

12:                                               ; preds = %52, %3
  %13 = load ptr, ptr %9, align 8, !tbaa !51
  %14 = getelementptr inbounds nuw %struct.PyMethodDef, ptr %13, i32 0, i32 0
  %15 = load ptr, ptr %14, align 8, !tbaa !131
  %16 = icmp ne ptr %15, null
  br i1 %16, label %17, label %55

17:                                               ; preds = %12
  %18 = load ptr, ptr %9, align 8, !tbaa !51
  %19 = getelementptr inbounds nuw %struct.PyMethodDef, ptr %18, i32 0, i32 2
  %20 = load i32, ptr %19, align 8, !tbaa !133
  %21 = and i32 %20, 16
  %22 = icmp ne i32 %21, 0
  br i1 %22, label %29, label %23

23:                                               ; preds = %17
  %24 = load ptr, ptr %9, align 8, !tbaa !51
  %25 = getelementptr inbounds nuw %struct.PyMethodDef, ptr %24, i32 0, i32 2
  %26 = load i32, ptr %25, align 8, !tbaa !133
  %27 = and i32 %26, 32
  %28 = icmp ne i32 %27, 0
  br i1 %28, label %29, label %31

29:                                               ; preds = %23, %17
  %30 = load ptr, ptr @PyExc_ValueError, align 8, !tbaa !4
  call void @PyErr_SetString(ptr noundef %30, ptr noundef @.str.35)
  store i32 -1, ptr %4, align 4
  store i32 1, ptr %10, align 4
  br label %56

31:                                               ; preds = %23
  %32 = load ptr, ptr %9, align 8, !tbaa !51
  %33 = load ptr, ptr %5, align 8, !tbaa !4
  %34 = load ptr, ptr %6, align 8, !tbaa !4
  %35 = call ptr @PyCMethod_New(ptr noundef %32, ptr noundef %33, ptr noundef %34, ptr noundef null)
  store ptr %35, ptr %8, align 8, !tbaa !4
  %36 = load ptr, ptr %8, align 8, !tbaa !4
  %37 = icmp eq ptr %36, null
  br i1 %37, label %38, label %39

38:                                               ; preds = %31
  store i32 -1, ptr %4, align 4
  store i32 1, ptr %10, align 4
  br label %56

39:                                               ; preds = %31
  %40 = load ptr, ptr %8, align 8, !tbaa !4
  call void @_PyObject_SetDeferredRefcount(ptr noundef %40)
  %41 = load ptr, ptr %5, align 8, !tbaa !4
  %42 = load ptr, ptr %9, align 8, !tbaa !51
  %43 = getelementptr inbounds nuw %struct.PyMethodDef, ptr %42, i32 0, i32 0
  %44 = load ptr, ptr %43, align 8, !tbaa !131
  %45 = load ptr, ptr %8, align 8, !tbaa !4
  %46 = call i32 @PyObject_SetAttrString(ptr noundef %41, ptr noundef %44, ptr noundef %45)
  %47 = icmp ne i32 %46, 0
  br i1 %47, label %48, label %50

48:                                               ; preds = %39
  %49 = load ptr, ptr %8, align 8, !tbaa !4
  call void @Py_DECREF(ptr noundef %49)
  store i32 -1, ptr %4, align 4
  store i32 1, ptr %10, align 4
  br label %56

50:                                               ; preds = %39
  %51 = load ptr, ptr %8, align 8, !tbaa !4
  call void @Py_DECREF(ptr noundef %51)
  br label %52

52:                                               ; preds = %50
  %53 = load ptr, ptr %9, align 8, !tbaa !51
  %54 = getelementptr %struct.PyMethodDef, ptr %53, i32 1
  store ptr %54, ptr %9, align 8, !tbaa !51
  br label %12, !llvm.loop !134

55:                                               ; preds = %12
  store i32 0, ptr %4, align 4
  store i32 1, ptr %10, align 4
  br label %56

56:                                               ; preds = %55, %48, %38, %29
  call void @llvm.lifetime.end.p0(i64 8, ptr %9) #9
  call void @llvm.lifetime.end.p0(i64 8, ptr %8) #9
  %57 = load i32, ptr %4, align 4
  ret i32 %57
}