; Function Attrs: nounwind uwtable
define internal fastcc range(i32 -1, 1) i32 @_add_methods_to_object(ptr noundef %0, ptr noundef nonnull %1, ptr noundef %2) unnamed_addr #0 {
  %4 = load ptr, ptr %2, align 8, !tbaa !204
  %.not23 = icmp eq ptr %4, null
  br i1 %.not23, label %Py_DECREF.exit21, label %.lr.ph

.lr.ph:                                           ; preds = %3, %Py_DECREF.exit
  %.024 = phi ptr [ %27, %Py_DECREF.exit ], [ %2, %3 ]
  %5 = getelementptr inbounds nuw i8, ptr %.024, i64 16
  %6 = load i32, ptr %5, align 8, !tbaa !206
  %7 = and i32 %6, 48
  %or.cond = icmp eq i32 %7, 0
  br i1 %or.cond, label %10, label %8

8:                                                ; preds = %.lr.ph
  %9 = load ptr, ptr @PyExc_ValueError, align 8, !tbaa !24
  tail call void @PyErr_SetString(ptr noundef %9, ptr noundef nonnull @.str.35) #8
  br label %Py_DECREF.exit21

10:                                               ; preds = %.lr.ph
  %11 = tail call ptr @PyCMethod_New(ptr noundef nonnull %.024, ptr noundef %0, ptr noundef nonnull %1, ptr noundef null) #8
  %12 = icmp eq ptr %11, null
  br i1 %12, label %Py_DECREF.exit21, label %13

13:                                               ; preds = %10
  tail call void @_PyObject_SetDeferredRefcount(ptr noundef nonnull %11) #8
  %14 = load ptr, ptr %.024, align 8, !tbaa !204
  %15 = tail call i32 @PyObject_SetAttrString(ptr noundef %0, ptr noundef %14, ptr noundef nonnull %11) #8
  %.not19 = icmp eq i32 %15, 0
  %16 = load i32, ptr %11, align 8, !tbaa !22
  %.not.i = icmp sgt i32 %16, -1
  br i1 %.not19, label %22, label %17

17:                                               ; preds = %13
  br i1 %.not.i, label %18, label %Py_DECREF.exit21

18:                                               ; preds = %17
  %19 = add nsw i32 %16, -1
  store i32 %19, ptr %11, align 8, !tbaa !22
  %20 = icmp eq i32 %19, 0
  br i1 %20, label %21, label %Py_DECREF.exit21

21:                                               ; preds = %18
  tail call void @_Py_Dealloc(ptr noundef nonnull %11) #8
  br label %Py_DECREF.exit21

22:                                               ; preds = %13
  br i1 %.not.i, label %23, label %Py_DECREF.exit

23:                                               ; preds = %22
  %24 = add nsw i32 %16, -1
  store i32 %24, ptr %11, align 8, !tbaa !22
  %25 = icmp eq i32 %24, 0
  br i1 %25, label %26, label %Py_DECREF.exit

26:                                               ; preds = %23
  tail call void @_Py_Dealloc(ptr noundef nonnull %11) #8
  br label %Py_DECREF.exit

Py_DECREF.exit:                                   ; preds = %22, %23, %26
  %27 = getelementptr i8, ptr %.024, i64 32
  %28 = load ptr, ptr %27, align 8, !tbaa !204
  %.not = icmp eq ptr %28, null
  br i1 %.not, label %Py_DECREF.exit21, label %.lr.ph, !llvm.loop !207

Py_DECREF.exit21:                                 ; preds = %10, %Py_DECREF.exit, %3, %21, %18, %17, %8
  %.015 = phi i32 [ -1, %8 ], [ -1, %17 ], [ -1, %18 ], [ -1, %21 ], [ 0, %3 ], [ -1, %10 ], [ 0, %Py_DECREF.exit ]
  ret i32 %.015
}